; ModuleID = 'bench/linux/original/wbrf.ll'
source_filename = "bench/linux/original/wbrf.ll"
target datalayout = "e-m:e-p270:32:32-p271:32:32-p272:64:64-i64:64-i128:128-f80:128-n8:16:32:64-S128"
target triple = "x86_64-unknown-linux-gnu"

; Function Attrs: fn_ret_thunk_extern mustprogress nofree norecurse nosync nounwind null_pointer_is_valid willreturn memory(read, argmem: readwrite, inaccessiblemem: none)
define dso_local void @ieee80211_check_wbrf_support(ptr nocapture noundef %0) local_unnamed_addr #0 align 16 {
  %2 = getelementptr inbounds i8, ptr %0, i64 64
  %3 = load ptr, ptr %2, align 8
  %4 = icmp eq ptr %3, null
  br i1 %4, label %11, label %5

5:                                                ; preds = %1
  %6 = getelementptr inbounds i8, ptr %3, i64 440
  %7 = load ptr, ptr %6, align 8
  %8 = icmp eq ptr %7, null
  br i1 %8, label %11, label %9

9:                                                ; preds = %5
  %10 = getelementptr inbounds i8, ptr %0, i64 5784
  store i8 0, ptr %10, align 8
  br label %11

11:                                               ; preds = %9, %5, %1
  ret void
}

; Function Attrs: fn_ret_thunk_extern nounwind null_pointer_is_valid
define dso_local void @ieee80211_add_wbrf(ptr nocapture noundef readonly %0, ptr nocapture noundef readonly %1) local_unnamed_addr #1 align 16 {
  %3 = getelementptr inbounds i8, ptr %0, i64 5784
  %4 = load i8, ptr %3, align 8, !range !5, !noundef !6
  %5 = icmp eq i8 %4, 0
  br i1 %5, label %10, label %6

6:                                                ; preds = %2
  %7 = getelementptr inbounds i8, ptr %1, i64 8
  %8 = load i32, ptr %7, align 8
  %9 = tail call i32 @nl80211_chan_width_to_mhz(i32 noundef %8) #3
  br label %10

10:                                               ; preds = %6, %2
  ret void
}

; Function Attrs: fn_ret_thunk_extern nounwind null_pointer_is_valid
define dso_local void @ieee80211_remove_wbrf(ptr nocapture noundef readonly %0, ptr nocapture noundef readonly %1) local_unnamed_addr #1 align 16 {
  %3 = getelementptr inbounds i8, ptr %0, i64 5784
  %4 = load i8, ptr %3, align 8, !range !5, !noundef !6
  %5 = icmp eq i8 %4, 0
  br i1 %5, label %10, label %6

6:                                                ; preds = %2
  %7 = getelementptr inbounds i8, ptr %1, i64 8
  %8 = load i32, ptr %7, align 8
  %9 = tail call i32 @nl80211_chan_width_to_mhz(i32 noundef %8) #3
  br label %10

10:                                               ; preds = %6, %2
  ret void
}

; Function Attrs: null_pointer_is_valid
declare dso_local i32 @nl80211_chan_width_to_mhz(i32 noundef) local_unnamed_addr #2


!llvm.module.flags = !{!0, !1, !2, !3, !4}

!0 = !{i32 1, !"wchar_size", i32 2}
!1 = !{i32 8, !"cf-protection-branch", i32 1}
!2 = !{i32 4, !"function_return_thunk_extern", i32 1}
!3 = !{i32 4, !"indirect_branch_cs_prefix", i32 1}
!4 = !{i32 4, !"SkipRaxSetup", i32 1}
!5 = !{i8 0, i8 2}
!6 = !{}
